; Function Attrs: mustprogress uwtable
define dso_local void @_ZN30btMultiBodySphericalJointMotorC2EP11btMultiBodyif(ptr noundef nonnull align 8 dereferenceable(204) %this, ptr noundef %body, i32 noundef %link, float noundef %maxMotorImpulse) unnamed_addr #0 align 2 personality ptr @__gxx_personality_v0 {
invoke.cont8:
  %m_data.i.i = getelementptr inbounds i8, ptr %body, i64 192
  %0 = load ptr, ptr %m_data.i.i, align 8
  %idxprom.i.i = sext i32 %link to i64
  %m_parent = getelementptr inbounds %struct.btMultibodyLink, ptr %0, i64 %idxprom.i.i, i32 2
  %1 = load i32, ptr %m_parent, align 4
  tail call void @_ZN21btMultiBodyConstraintC2EP11btMultiBodyS1_iiibi(ptr noundef nonnull align 8 dereferenceable(96) %this, ptr noundef nonnull %body, ptr noundef nonnull %body, i32 noundef %link, i32 noundef %1, i32 noundef 3, i1 noundef zeroext true, i32 noundef 8)
  store ptr getelementptr inbounds ({ [21 x ptr] }, ptr @_ZTV30btMultiBodySphericalJointMotor, i64 0, i32 0, i64 2), ptr %this, align 8
  %m_desiredVelocity = getelementptr inbounds i8, ptr %this, i64 96
  %arrayidx7.i.i = getelementptr inbounds i8, ptr %this, i64 124
  tail call void @llvm.memset.p0.i64(ptr noundef nonnull align 8 dereferenceable(28) %m_desiredVelocity, i8 0, i64 28, i1 false)
  store float 1.000000e+00, ptr %arrayidx7.i.i, align 4
  %m_use_multi_dof_params = getelementptr inbounds i8, ptr %this, i64 128
  store i8 0, ptr %m_use_multi_dof_params, align 8
  %m_kd = getelementptr inbounds i8, ptr %this, i64 132
  store <4 x float> <float 1.000000e+00, float 1.000000e+00, float 1.000000e+00, float 0.000000e+00>, ptr %m_kd, align 4
  %m_kp = getelementptr inbounds i8, ptr %this, i64 148
  store <4 x float> <float 0x3FC99999A0000000, float 0x3FC99999A0000000, float 0x3FC99999A0000000, float 0.000000e+00>, ptr %m_kp, align 4
  %m_erp = getelementptr inbounds i8, ptr %this, i64 164
  store <2 x float> <float 1.000000e+00, float 0x47EFFFFFE0000000>, ptr %m_erp, align 4
  %m_maxAppliedImpulseMultiDof = getelementptr inbounds i8, ptr %this, i64 172
  store float %maxMotorImpulse, ptr %m_maxAppliedImpulseMultiDof, align 4
  %arrayidx3.i10 = getelementptr inbounds i8, ptr %this, i64 176
  store float %maxMotorImpulse, ptr %arrayidx3.i10, align 8
  %arrayidx5.i11 = getelementptr inbounds i8, ptr %this, i64 180
  store float %maxMotorImpulse, ptr %arrayidx5.i11, align 4
  %arrayidx7.i12 = getelementptr inbounds i8, ptr %this, i64 184
  store <4 x float> <float 0.000000e+00, float 1.000000e+00, float 1.000000e+00, float 1.000000e+00>, ptr %arrayidx7.i12, align 8
  %arrayidx7.i15 = getelementptr inbounds i8, ptr %this, i64 200
  store float 0.000000e+00, ptr %arrayidx7.i15, align 8
  %m_maxAppliedImpulse = getelementptr inbounds i8, ptr %this, i64 60
  store float %maxMotorImpulse, ptr %m_maxAppliedImpulse, align 4
  ret void
}